; Function Attrs: nofree norecurse nosync nounwind memory(readwrite, inaccessiblemem: none) uwtable
define i32 @Inta_ManGlobalVars(ptr noundef readonly captures(none) %0) local_unnamed_addr #4 {
  %2 = load ptr, ptr %0, align 8, !tbaa !23
  %3 = getelementptr inbounds nuw i8, ptr %2, i64 16
  %.04657 = load ptr, ptr %3, align 8, !tbaa !24
  %.not58 = icmp eq ptr %.04657, null
  br i1 %.not58, label %.critedge2, label %.lr.ph60

.lr.ph60:                                         ; preds = %1
  %4 = getelementptr inbounds nuw i8, ptr %0, i64 96
  br label %5

.loopexit55:                                      ; preds = %12, %.preheader54
  %.046 = load ptr, ptr %.04659, align 8, !tbaa !24
  %.not = icmp eq ptr %.046, null
  br i1 %.not, label %.lr.ph69, label %5, !llvm.loop !26

5:                                                ; preds = %.lr.ph60, %.loopexit55
  %.04659 = phi ptr [ %.04657, %.lr.ph60 ], [ %.046, %.loopexit55 ]
  %6 = getelementptr inbounds nuw i8, ptr %.04659, i64 28
  %7 = load i32, ptr %6, align 4
  %8 = and i32 %7, 3
  %or.cond.not = icmp eq i32 %8, 3
  br i1 %or.cond.not, label %.preheader54, label %.lr.ph69

.preheader54:                                     ; preds = %5
  %9 = and i32 %7, 134217720
  %.not76 = icmp eq i32 %9, 0
  br i1 %.not76, label %.loopexit55, label %.lr.ph

.lr.ph:                                           ; preds = %.preheader54
  %10 = load ptr, ptr %4, align 8, !tbaa !28
  %11 = getelementptr inbounds nuw i8, ptr %.04659, i64 32
  br label %12

12:                                               ; preds = %.lr.ph, %12
  %indvars.iv = phi i64 [ 0, %.lr.ph ], [ %indvars.iv.next, %12 ]
  %13 = getelementptr inbounds nuw [0 x i32], ptr %11, i64 0, i64 %indvars.iv
  %14 = load i32, ptr %13, align 4, !tbaa !29
  %15 = ashr i32 %14, 1
  %16 = sext i32 %15 to i64
  %17 = getelementptr inbounds i32, ptr %10, i64 %16
  store i32 1, ptr %17, align 4, !tbaa !29
  %indvars.iv.next = add nuw nsw i64 %indvars.iv, 1
  %18 = load i32, ptr %6, align 4
  %19 = lshr i32 %18, 3
  %20 = and i32 %19, 16777215
  %21 = zext nneg i32 %20 to i64
  %22 = icmp samesign ult i64 %indvars.iv.next, %21
  br i1 %22, label %12, label %.loopexit55, !llvm.loop !30

.lr.ph69:                                         ; preds = %.loopexit55, %5
  %23 = getelementptr inbounds nuw i8, ptr %0, i64 96
  br label %24

24:                                               ; preds = %.lr.ph69, %.loopexit
  %.14768 = phi ptr [ %.04657, %.lr.ph69 ], [ %.147, %.loopexit ]
  %25 = getelementptr inbounds nuw i8, ptr %.14768, i64 28
  %26 = load i32, ptr %25, align 4
  %27 = and i32 %26, 2
  %.not51 = icmp eq i32 %27, 0
  br i1 %.not51, label %.critedge2, label %28

28:                                               ; preds = %24
  %29 = and i32 %26, 1
  %.not52 = icmp ne i32 %29, 0
  %30 = and i32 %26, 134217720
  %.not77 = icmp eq i32 %30, 0
  %or.cond = or i1 %.not52, %.not77
  br i1 %or.cond, label %.loopexit, label %.lr.ph64

.lr.ph64:                                         ; preds = %28
  %31 = getelementptr inbounds nuw i8, ptr %.14768, i64 32
  %32 = load ptr, ptr %23, align 8, !tbaa !28
  br label %33

33:                                               ; preds = %.lr.ph64, %43
  %34 = phi i32 [ %26, %.lr.ph64 ], [ %44, %43 ]
  %indvars.iv79 = phi i64 [ 0, %.lr.ph64 ], [ %indvars.iv.next80, %43 ]
  %35 = getelementptr inbounds nuw [0 x i32], ptr %31, i64 0, i64 %indvars.iv79
  %36 = load i32, ptr %35, align 4, !tbaa !29
  %37 = ashr i32 %36, 1
  %38 = sext i32 %37 to i64
  %39 = getelementptr inbounds i32, ptr %32, i64 %38
  %40 = load i32, ptr %39, align 4, !tbaa !29
  %41 = icmp eq i32 %40, 1
  br i1 %41, label %42, label %43

42:                                               ; preds = %33
  store i32 -100000000, ptr %39, align 4, !tbaa !29
  %.pre = load i32, ptr %25, align 4
  br label %43

43:                                               ; preds = %33, %42
  %44 = phi i32 [ %.pre, %42 ], [ %34, %33 ]
  %indvars.iv.next80 = add nuw nsw i64 %indvars.iv79, 1
  %45 = lshr i32 %44, 3
  %46 = and i32 %45, 16777215
  %47 = zext nneg i32 %46 to i64
  %48 = icmp samesign ult i64 %indvars.iv.next80, %47
  br i1 %48, label %33, label %.loopexit, !llvm.loop !31

.loopexit:                                        ; preds = %43, %28
  %.147 = load ptr, ptr %.14768, align 8, !tbaa !24
  %.not50 = icmp eq ptr %.147, null
  br i1 %.not50, label %.critedge2, label %24, !llvm.loop !32

.critedge2:                                       ; preds = %24, %.loopexit, %1
  %49 = getelementptr inbounds nuw i8, ptr %0, i64 8
  %50 = load ptr, ptr %49, align 8, !tbaa !33
  %51 = getelementptr i8, ptr %50, i64 4
  %.val71 = load i32, ptr %51, align 4, !tbaa !3
  %52 = icmp sgt i32 %.val71, 0
  br i1 %52, label %.lr.ph74, label %.critedge4.preheader

.lr.ph74:                                         ; preds = %.critedge2
  %53 = getelementptr i8, ptr %50, i64 8
  %.val53 = load ptr, ptr %53, align 8, !tbaa !11
  %54 = getelementptr inbounds nuw i8, ptr %0, i64 96
  %55 = load ptr, ptr %54, align 8, !tbaa !28
  br label %56

.critedge4.preheader.loopexit:                    ; preds = %56
  %indvars85 = trunc i64 %indvars.iv.next83 to i32
  br label %.critedge4.preheader

.critedge4.preheader:                             ; preds = %.critedge4.preheader.loopexit, %.critedge2
  %.4.lcssa = phi i32 [ 0, %.critedge2 ], [ %indvars85, %.critedge4.preheader.loopexit ]
  ret i32 %.4.lcssa

56:                                               ; preds = %.lr.ph74, %56
  %indvars.iv82 = phi i64 [ 0, %.lr.ph74 ], [ %indvars.iv.next83, %56 ]
  %indvars86 = trunc i64 %indvars.iv82 to i32
  %57 = getelementptr inbounds nuw i32, ptr %.val53, i64 %indvars.iv82
  %58 = load i32, ptr %57, align 4, !tbaa !29
  %indvars.iv.next83 = add nuw nsw i64 %indvars.iv82, 1
  %59 = xor i32 %indvars86, -1
  %60 = sext i32 %58 to i64
  %61 = getelementptr inbounds i32, ptr %55, i64 %60
  store i32 %59, ptr %61, align 4, !tbaa !29
  %.val = load i32, ptr %51, align 4, !tbaa !3
  %62 = sext i32 %.val to i64
  %63 = icmp slt i64 %indvars.iv.next83, %62
  br i1 %63, label %56, label %.critedge4.preheader.loopexit, !llvm.loop !34
}